; Function Attrs: mustprogress nofree norecurse nosync nounwind willreturn memory(argmem: read) uwtable
define noundef zeroext i1 @_ZNK8proxygen11HTTPMessage9isHTTP1_1Ev(ptr nocapture noundef nonnull readonly align 8 dereferenceable(616) %this) local_unnamed_addr #11 align 2 {
entry:
  %version_ = getelementptr inbounds i8, ptr %this, i64 608
  %0 = load i8, ptr %version_, align 8
  %cmp.i = icmp eq i8 %0, 1
  %second.i = getelementptr inbounds i8, ptr %this, i64 609
  %1 = load i8, ptr %second.i, align 1
  %cmp6.i = icmp eq i8 %1, 1
  %2 = select i1 %cmp.i, i1 %cmp6.i, i1 false
  ret i1 %2
}